target datalayout = "e-m:e-p270:32:32-p271:32:32-p272:64:64-i64:64-i128:128-f80:128-n8:16:32:64-S128"
target triple = "x86_64-pc-linux-gnu"

%class.State = type { [315 x i32], [315 x i16], i32, ptr, [2 x ptr] }

@UseSSE = external global i32, align 4

; Function Attrs: mustprogress nounwind uwtable
define hidden void @_ZN5State13_sub_Op_SqrtFEPK4Node(ptr noundef nonnull align 8 dereferenceable(1920) %0, ptr noundef %1) #1 align 2 {
  %3 = alloca ptr, align 8
  %4 = alloca ptr, align 8
  %5 = alloca i32, align 4
  store ptr %0, ptr %3, align 8
  store ptr %1, ptr %4, align 8
  %6 = load ptr, ptr %3, align 8
  %7 = getelementptr inbounds %class.State, ptr %6, i32 0, i32 4
  %8 = getelementptr inbounds [2 x ptr], ptr %7, i64 0, i64 0
  %9 = load ptr, ptr %8, align 8
  %10 = icmp ne ptr %9, null
  br i1 %10, label %11, label %55

11:                                               ; preds = %2
  %12 = getelementptr inbounds %class.State, ptr %6, i32 0, i32 4
  %13 = getelementptr inbounds [2 x ptr], ptr %12, i64 0, i64 0
  %14 = load ptr, ptr %13, align 8
  %15 = getelementptr inbounds %class.State, ptr %14, i32 0, i32 1
  %16 = getelementptr inbounds [315 x i16], ptr %15, i64 0, i64 78
  %17 = load i16, ptr %16, align 4
  %18 = zext i16 %17 to i32
  %19 = and i32 %18, 1
  %20 = icmp ne i32 %19, 0
  br i1 %20, label %21, label %55

21:                                               ; preds = %11
  %22 = load i32, ptr @UseSSE, align 4
  %23 = icmp sge i32 %22, 1
  br i1 %23, label %24, label %55

24:                                               ; preds = %21
  %25 = getelementptr inbounds %class.State, ptr %6, i32 0, i32 4
  %26 = getelementptr inbounds [2 x ptr], ptr %25, i64 0, i64 0
  %27 = load ptr, ptr %26, align 8
  %28 = getelementptr inbounds %class.State, ptr %27, i32 0, i32 0
  %29 = getelementptr inbounds [315 x i32], ptr %28, i64 0, i64 78
  %30 = load i32, ptr %29, align 8
  %31 = add i32 %30, 100
  store i32 %31, ptr %5, align 4
  %32 = load i32, ptr %5, align 4
  %33 = getelementptr inbounds %class.State, ptr %6, i32 0, i32 0
  %34 = getelementptr inbounds [315 x i32], ptr %33, i64 0, i64 78
  store i32 %32, ptr %34, align 8
  %35 = getelementptr inbounds %class.State, ptr %6, i32 0, i32 1
  %36 = getelementptr inbounds [315 x i16], ptr %35, i64 0, i64 78
  store i16 2295, ptr %36, align 4
  %37 = load i32, ptr %5, align 4
  %38 = add i32 %37, 100
  %39 = getelementptr inbounds %class.State, ptr %6, i32 0, i32 0
  %40 = getelementptr inbounds [315 x i32], ptr %39, i64 0, i64 80
  store i32 %38, ptr %40, align 8
  %41 = getelementptr inbounds %class.State, ptr %6, i32 0, i32 1
  %42 = getelementptr inbounds [315 x i16], ptr %41, i64 0, i64 80
  store i16 641, ptr %42, align 4
  %43 = load i32, ptr %5, align 4
  %44 = add i32 %43, 100
  %45 = getelementptr inbounds %class.State, ptr %6, i32 0, i32 0
  %46 = getelementptr inbounds [315 x i32], ptr %45, i64 0, i64 79
  store i32 %44, ptr %46, align 4
  %47 = getelementptr inbounds %class.State, ptr %6, i32 0, i32 1
  %48 = getelementptr inbounds [315 x i16], ptr %47, i64 0, i64 79
  store i16 643, ptr %48, align 2
  %49 = load i32, ptr %5, align 4
  %50 = add i32 %49, 95
  %51 = getelementptr inbounds %class.State, ptr %6, i32 0, i32 0
  %52 = getelementptr inbounds [315 x i32], ptr %51, i64 0, i64 106
  store i32 %50, ptr %52, align 8
  %53 = getelementptr inbounds %class.State, ptr %6, i32 0, i32 1
  %54 = getelementptr inbounds [315 x i16], ptr %53, i64 0, i64 106
  store i16 637, ptr %54, align 4
  br label %55

55:                                               ; preds = %24, %21, %11, %2
  ret void
}