; Function Attrs: mustprogress nofree norecurse nosync nounwind willreturn memory(read, argmem: readwrite, inaccessiblemem: none) uwtable
define hidden void @_ZN5State13_sub_Op_SqrtFEPK4Node(ptr nocapture noundef nonnull align 8 dereferenceable(1920) %0, ptr nocapture readnone %1) local_unnamed_addr #1 align 2 {
  %3 = getelementptr inbounds i8, ptr %0, i64 1904
  %4 = load ptr, ptr %3, align 8
  %.not = icmp eq ptr %4, null
  br i1 %.not, label %26, label %5

5:                                                ; preds = %2
  %6 = getelementptr inbounds i8, ptr %4, i64 1416
  %7 = load i16, ptr %6, align 4
  %8 = and i16 %7, 1
  %9 = icmp ne i16 %8, 0
  %10 = load i32, ptr @UseSSE, align 4
  %11 = icmp sgt i32 %10, 0
  %or.cond = select i1 %9, i1 %11, i1 false
  br i1 %or.cond, label %12, label %26

12:                                               ; preds = %5
  %13 = getelementptr inbounds i8, ptr %4, i64 312
  %14 = load i32, ptr %13, align 8
  %15 = add i32 %14, 100
  %16 = getelementptr inbounds i8, ptr %0, i64 312
  store i32 %15, ptr %16, align 8
  %17 = getelementptr inbounds i8, ptr %0, i64 1416
  store i16 2295, ptr %17, align 8
  %18 = add i32 %14, 200
  %19 = getelementptr inbounds i8, ptr %0, i64 320
  store i32 %18, ptr %19, align 8
  %20 = getelementptr inbounds i8, ptr %0, i64 1420
  store i16 641, ptr %20, align 4
  %21 = getelementptr inbounds i8, ptr %0, i64 316
  store i32 %18, ptr %21, align 4
  %22 = getelementptr inbounds i8, ptr %0, i64 1418
  store i16 643, ptr %22, align 2
  %23 = add i32 %14, 195
  %24 = getelementptr inbounds i8, ptr %0, i64 424
  store i32 %23, ptr %24, align 8
  %25 = getelementptr inbounds i8, ptr %0, i64 1472
  store i16 637, ptr %25, align 8
  br label %26

26:                                               ; preds = %12, %5, %2
  ret void
}